target datalayout = "e-m:e-p270:32:32-p271:32:32-p272:64:64-i64:64-i128:128-f80:128-n8:16:32:64-S128"
target triple = "x86_64-pc-linux-gnu"

%struct.rlimit = type { i64, i64 }
%struct.uv_thread_options_s = type { i32, i64 }
%union.pthread_attr_t = type { i64, [48 x i8] }
%union.anon = type { ptr }

; Function Attrs: nounwind uwtable
define internal i64 @uv__default_stack_size() #0 {
  ret i64 2097152
}

; Function Attrs: nounwind uwtable
define internal i64 @uv__min_stack_size() #0 {
  %1 = alloca i64, align 8
  %2 = call i64 @__sysconf(i32 noundef 75) #8
  %3 = icmp ult i64 8192, %2
  br i1 %3, label %4, label %6

4:                                                ; preds = %0
  %5 = call i64 @__sysconf(i32 noundef 75) #8
  store i64 %5, ptr %1, align 8
  br label %7

6:                                                ; preds = %0
  store i64 8192, ptr %1, align 8
  br label %7

7:                                                ; preds = %6, %4
  %8 = load i64, ptr %1, align 8
  ret i64 %8
}

; Function Attrs: nounwind uwtable
define dso_local i64 @uv__thread_stack_size() #0 {
  %1 = alloca i64, align 8
  %2 = alloca %struct.rlimit, align 8
  %3 = alloca i32, align 4
  call void @llvm.lifetime.start.p0(i64 16, ptr %2) #8
  %4 = call i32 @getrlimit(i32 noundef 3, ptr noundef %2) #8
  %5 = icmp ne i32 %4, 0
  br i1 %5, label %6, label %8

6:                                                ; preds = %0
  %7 = call i64 @uv__default_stack_size()
  store i64 %7, ptr %1, align 8
  store i32 1, ptr %3, align 4
  br label %32

8:                                                ; preds = %0
  %9 = getelementptr inbounds nuw %struct.rlimit, ptr %2, i32 0, i32 0
  %10 = load i64, ptr %9, align 8, !tbaa !10
  %11 = icmp eq i64 %10, -1
  br i1 %11, label %12, label %14

12:                                               ; preds = %8
  %13 = call i64 @uv__default_stack_size()
  store i64 %13, ptr %1, align 8
  store i32 1, ptr %3, align 4
  br label %32

14:                                               ; preds = %8
  %15 = getelementptr inbounds nuw %struct.rlimit, ptr %2, i32 0, i32 0
  %16 = load i64, ptr %15, align 8, !tbaa !10
  %17 = call i32 @getpagesize() #10
  %18 = sext i32 %17 to i64
  %19 = urem i64 %16, %18
  %20 = getelementptr inbounds nuw %struct.rlimit, ptr %2, i32 0, i32 0
  %21 = load i64, ptr %20, align 8, !tbaa !10
  %22 = sub i64 %21, %19
  store i64 %22, ptr %20, align 8, !tbaa !10
  %23 = getelementptr inbounds nuw %struct.rlimit, ptr %2, i32 0, i32 0
  %24 = load i64, ptr %23, align 8, !tbaa !10
  %25 = call i64 @uv__min_stack_size()
  %26 = icmp uge i64 %24, %25
  br i1 %26, label %27, label %30

27:                                               ; preds = %14
  %28 = getelementptr inbounds nuw %struct.rlimit, ptr %2, i32 0, i32 0
  %29 = load i64, ptr %28, align 8, !tbaa !10
  store i64 %29, ptr %1, align 8
  store i32 1, ptr %3, align 4
  br label %32

30:                                               ; preds = %14
  %31 = call i64 @uv__default_stack_size()
  store i64 %31, ptr %1, align 8
  store i32 1, ptr %3, align 4
  br label %32

32:                                               ; preds = %30, %27, %12, %6
  call void @llvm.lifetime.end.p0(i64 16, ptr %2) #8
  %33 = load i64, ptr %1, align 8
  ret i64 %33
}

; Function Attrs: nounwind uwtable
define dso_local i32 @uv_thread_create_ex(ptr noundef %0, ptr noundef %1, ptr noundef %2, ptr noundef %3) #0 {
  %5 = alloca ptr, align 8
  %6 = alloca ptr, align 8
  %7 = alloca ptr, align 8
  %8 = alloca ptr, align 8
  %9 = alloca i32, align 4
  %10 = alloca ptr, align 8
  %11 = alloca %union.pthread_attr_t, align 8
  %12 = alloca i64, align 8
  %13 = alloca i64, align 8
  %14 = alloca i64, align 8
  %15 = alloca %union.anon, align 8
  store ptr %0, ptr %5, align 8, !tbaa !13
  store ptr %1, ptr %6, align 8, !tbaa !17
  store ptr %2, ptr %7, align 8, !tbaa !4
  store ptr %3, ptr %8, align 8, !tbaa !4
  call void @llvm.lifetime.start.p0(i64 4, ptr %9) #8
  call void @llvm.lifetime.start.p0(i64 8, ptr %10) #8
  call void @llvm.lifetime.start.p0(i64 56, ptr %11) #8
  call void @llvm.lifetime.start.p0(i64 8, ptr %12) #8
  call void @llvm.lifetime.start.p0(i64 8, ptr %13) #8
  call void @llvm.lifetime.start.p0(i64 8, ptr %14) #8
  call void @llvm.lifetime.start.p0(i64 8, ptr %15) #8
  %16 = load ptr, ptr %6, align 8, !tbaa !17
  %17 = getelementptr inbounds nuw %struct.uv_thread_options_s, ptr %16, i32 0, i32 0
  %18 = load i32, ptr %17, align 8, !tbaa !15
  %19 = and i32 %18, 1
  %20 = icmp ne i32 %19, 0
  br i1 %20, label %21, label %25

21:                                               ; preds = %4
  %22 = load ptr, ptr %6, align 8, !tbaa !17
  %23 = getelementptr inbounds nuw %struct.uv_thread_options_s, ptr %22, i32 0, i32 1
  %24 = load i64, ptr %23, align 8, !tbaa !19
  br label %26

25:                                               ; preds = %4
  br label %26

26:                                               ; preds = %25, %21
  %27 = phi i64 [ %24, %21 ], [ 0, %25 ]
  store i64 %27, ptr %13, align 8, !tbaa !20
  store ptr null, ptr %10, align 8, !tbaa !21
  %28 = load i64, ptr %13, align 8, !tbaa !20
  %29 = icmp eq i64 %28, 0
  br i1 %29, label %30, label %32

30:                                               ; preds = %26
  %31 = call i64 @uv__thread_stack_size()
  store i64 %31, ptr %13, align 8, !tbaa !20
  br label %50

32:                                               ; preds = %26
  %33 = call i32 @getpagesize() #10
  %34 = sext i32 %33 to i64
  store i64 %34, ptr %12, align 8, !tbaa !20
  %35 = load i64, ptr %13, align 8, !tbaa !20
  %36 = load i64, ptr %12, align 8, !tbaa !20
  %37 = add i64 %35, %36
  %38 = sub i64 %37, 1
  %39 = load i64, ptr %12, align 8, !tbaa !20
  %40 = sub i64 %39, 1
  %41 = xor i64 %40, -1
  %42 = and i64 %38, %41
  store i64 %42, ptr %13, align 8, !tbaa !20
  %43 = call i64 @uv__min_stack_size()
  store i64 %43, ptr %14, align 8, !tbaa !20
  %44 = load i64, ptr %13, align 8, !tbaa !20
  %45 = load i64, ptr %14, align 8, !tbaa !20
  %46 = icmp ult i64 %44, %45
  br i1 %46, label %47, label %49

47:                                               ; preds = %32
  %48 = load i64, ptr %14, align 8, !tbaa !20
  store i64 %48, ptr %13, align 8, !tbaa !20
  br label %49

49:                                               ; preds = %47, %32
  br label %50

50:                                               ; preds = %49, %30
  %51 = load i64, ptr %13, align 8, !tbaa !20
  %52 = icmp ugt i64 %51, 0
  br i1 %52, label %53, label %65

53:                                               ; preds = %50
  store ptr %11, ptr %10, align 8, !tbaa !21
  %54 = load ptr, ptr %10, align 8, !tbaa !21
  %55 = call i32 @pthread_attr_init(ptr noundef %54) #8
  %56 = icmp ne i32 %55, 0
  br i1 %56, label %57, label %58

57:                                               ; preds = %53
  call void @abort() #9
  unreachable

58:                                               ; preds = %53
  %59 = load ptr, ptr %10, align 8, !tbaa !21
  %60 = load i64, ptr %13, align 8, !tbaa !20
  %61 = call i32 @pthread_attr_setstacksize(ptr noundef %59, i64 noundef %60) #8
  %62 = icmp ne i32 %61, 0
  br i1 %62, label %63, label %64

63:                                               ; preds = %58
  call void @abort() #9
  unreachable

64:                                               ; preds = %58
  br label %65

65:                                               ; preds = %64, %50
  %66 = load ptr, ptr %7, align 8, !tbaa !4
  store ptr %66, ptr %15, align 8, !tbaa !23
  %67 = load ptr, ptr %5, align 8, !tbaa !13
  %68 = load ptr, ptr %10, align 8, !tbaa !21
  %69 = load ptr, ptr %15, align 8, !tbaa !23
  %70 = load ptr, ptr %8, align 8, !tbaa !4
  %71 = call i32 @pthread_create(ptr noundef %67, ptr noundef %68, ptr noundef %69, ptr noundef %70) #8
  store i32 %71, ptr %9, align 4, !tbaa !8
  %72 = load ptr, ptr %10, align 8, !tbaa !21
  %73 = icmp ne ptr %72, null
  br i1 %73, label %74, label %77

74:                                               ; preds = %65
  %75 = load ptr, ptr %10, align 8, !tbaa !21
  %76 = call i32 @pthread_attr_destroy(ptr noundef %75) #8
  br label %77

77:                                               ; preds = %74, %65
  %78 = load i32, ptr %9, align 4, !tbaa !8
  %79 = sub nsw i32 0, %78
  call void @llvm.lifetime.end.p0(i64 8, ptr %15) #8
  call void @llvm.lifetime.end.p0(i64 8, ptr %14) #8
  call void @llvm.lifetime.end.p0(i64 8, ptr %13) #8
  call void @llvm.lifetime.end.p0(i64 8, ptr %12) #8
  call void @llvm.lifetime.end.p0(i64 56, ptr %11) #8
  call void @llvm.lifetime.end.p0(i64 8, ptr %10) #8
  call void @llvm.lifetime.end.p0(i64 4, ptr %9) #8
  ret i32 %79
}