; Function Attrs: nounwind uwtable
define dso_local range(i32 -2147483647, -2147483648) i32 @uv_thread_create_ex(ptr noundef %0, ptr noundef readonly captures(none) %1, ptr noundef %2, ptr noundef %3) local_unnamed_addr #0 {
  %5 = alloca %struct.rlimit, align 8
  %6 = alloca %union.pthread_attr_t, align 8
  call void @llvm.lifetime.start.p0(i64 56, ptr nonnull %6) #10
  %7 = load i32, ptr %1, align 8, !tbaa !9
  %8 = and i32 %7, 1
  %.not = icmp eq i32 %8, 0
  br i1 %.not, label %.thread, label %9

9:                                                ; preds = %4
  %10 = getelementptr inbounds nuw i8, ptr %1, i64 8
  %11 = load i64, ptr %10, align 8, !tbaa !12
  %12 = icmp eq i64 %11, 0
  br i1 %12, label %.thread, label %27

.thread:                                          ; preds = %4, %9
  call void @llvm.lifetime.start.p0(i64 16, ptr nonnull %5) #10
  %13 = call i32 @getrlimit(i32 noundef 3, ptr noundef nonnull %5) #10
  %.not.i = icmp eq i32 %13, 0
  br i1 %.not.i, label %14, label %uv__thread_stack_size.exit

14:                                               ; preds = %.thread
  %15 = load i64, ptr %5, align 8, !tbaa !4
  %16 = icmp eq i64 %15, -1
  br i1 %16, label %uv__thread_stack_size.exit, label %17

17:                                               ; preds = %14
  %18 = tail call i32 @getpagesize() #12
  %19 = sext i32 %18 to i64
  %20 = urem i64 %15, %19
  %21 = sub i64 %15, %20
  store i64 %21, ptr %5, align 8, !tbaa !4
  %22 = call i64 @__sysconf(i32 noundef 75) #10
  %23 = icmp ugt i64 %22, 8192
  br i1 %23, label %24, label %uv__min_stack_size.exit.i

24:                                               ; preds = %17
  %25 = call i64 @__sysconf(i32 noundef 75) #10
  br label %uv__min_stack_size.exit.i

uv__min_stack_size.exit.i:                        ; preds = %24, %17
  %.0.i.i = phi i64 [ %25, %24 ], [ 8192, %17 ]
  %.not2.i = icmp ult i64 %21, %.0.i.i
  %26 = load i64, ptr %5, align 8
  %spec.select.i = select i1 %.not2.i, i64 2097152, i64 %26
  br label %uv__thread_stack_size.exit

uv__thread_stack_size.exit:                       ; preds = %.thread, %14, %uv__min_stack_size.exit.i
  %.0.i = phi i64 [ 2097152, %.thread ], [ 2097152, %14 ], [ %spec.select.i, %uv__min_stack_size.exit.i ]
  call void @llvm.lifetime.end.p0(i64 16, ptr nonnull %5) #10
  br label %38

27:                                               ; preds = %9
  %28 = tail call i32 @getpagesize() #12
  %29 = sext i32 %28 to i64
  %30 = add i64 %11, -1
  %31 = add i64 %30, %29
  %32 = sub nsw i64 0, %29
  %33 = and i64 %31, %32
  %34 = tail call i64 @__sysconf(i32 noundef 75) #10
  %35 = icmp ugt i64 %34, 8192
  br i1 %35, label %36, label %uv__min_stack_size.exit

36:                                               ; preds = %27
  %37 = tail call i64 @__sysconf(i32 noundef 75) #10
  br label %uv__min_stack_size.exit

uv__min_stack_size.exit:                          ; preds = %27, %36
  %.0.i27 = phi i64 [ %37, %36 ], [ 8192, %27 ]
  %spec.select = tail call i64 @llvm.umax.i64(i64 %33, i64 %.0.i27)
  br label %38

38:                                               ; preds = %uv__min_stack_size.exit, %uv__thread_stack_size.exit
  %.019 = phi i64 [ %.0.i, %uv__thread_stack_size.exit ], [ %spec.select, %uv__min_stack_size.exit ]
  %.not23 = icmp eq i64 %.019, 0
  br i1 %.not23, label %.thread28, label %40

.thread28:                                        ; preds = %38
  %39 = call i32 @pthread_create(ptr noundef %0, ptr noundef null, ptr noundef %2, ptr noundef %3) #10
  br label %49

40:                                               ; preds = %38
  %41 = call i32 @pthread_attr_init(ptr noundef nonnull %6) #10
  %.not24 = icmp eq i32 %41, 0
  br i1 %.not24, label %43, label %42

42:                                               ; preds = %40
  call void @abort() #11
  unreachable

43:                                               ; preds = %40
  %44 = call i32 @pthread_attr_setstacksize(ptr noundef nonnull %6, i64 noundef %.019) #10
  %.not25 = icmp eq i32 %44, 0
  br i1 %.not25, label %46, label %45

45:                                               ; preds = %43
  call void @abort() #11
  unreachable

46:                                               ; preds = %43
  %47 = call i32 @pthread_create(ptr noundef %0, ptr noundef nonnull %6, ptr noundef %2, ptr noundef %3) #10
  %48 = call i32 @pthread_attr_destroy(ptr noundef nonnull %6) #10
  br label %49

49:                                               ; preds = %.thread28, %46
  %50 = phi i32 [ %39, %.thread28 ], [ %47, %46 ]
  %51 = sub nsw i32 0, %50
  call void @llvm.lifetime.end.p0(i64 56, ptr nonnull %6) #10
  ret i32 %51
}